(lp0
(lp1
I23
aI3
aI3
aI6
aI13
aI5
aI8
aI19
aI3
aI10
aI3
aI2
aI6
aI11
aI10
aI9
aI13
aI12
aI12
aI1
aI15
aI13
aI10
aI6
aI5
aI18
aI9
aI6
aI13
aI9
aI6
aI1
aI10
aI15
aI4
aI12
aI16
aI14
aI6
aI8
aI15
aI3
aI4
aI4
aI13
aI19
aI6
aI19
aI2
aI5
aI7
aI17
aI8
aI15
aI4
aI8
aI30
aI2
aI8
aI6
aI7
aI5
aI8
aI23
aI13
aI13
aI4
aI8
aI4
aI15
aI14
aI3
aI4
aI4
aI22
aI8
aI12
aI4
aI5
aI33
aI18
aI10
aI2
aI5
aI3
aI9
aI30
aI11
aI5
aI6
aI3
aI6
aI3
aI4
aI14
aI1
aI5
aI5
aI5
aI18
aI3
aI3
aI2
aI5
aI14
aI5
aI9
aI3
aI23
aI7
aI6
aa(lp2
I1
aI11
aI4
aI9
aI34
aI2
aI5
aI3
aI8
aI6
aI9
aI8
aI5
aI11
aI3
aI28
aI8
aI4
aI18
aI7
aI13
aI5
aI8
aI8
aI11
aI8
aI2
aI7
aI7
aI20
aI7
aI18
aI9
aI17
aI3
aI8
aI5
aI20
aI19
aI18
aI4
aI5
aI15
aI6
aI3
aI5
aI16
aI8
aI6
aI9
aI2
aI12
aI19
aI3
aI1
aI8
aI34
aI24
aI17
aI5
aI8
aI7
aI17
aI3
aI5
aI20
aI6
aI25
aI5
aI3
aI8
aI36
aI3
aI25
aI8
aI12
aI9
aI25
aI11
aI4
aI3
aI3
aI13
aI5
aI16
aI10
aI12
aI3
aI16
aI3
aI11
aI4
aI3
aI5
aI8
aI14
aI4
aI15
aI2
aI7
aI14
aI25
aa(lp3
I7
aI22
aI2
aI10
aI10
aI2
aI7
aI3
aI4
aI11
aI9
aI7
aI4
aI10
aI6
aI4
aI6
aI15
aI11
aI4
aI8
aI6
aI9
aI15
aI10
aI2
aI8
aI20
aI2
aI6
aI7
aI6
aI14
aI4
aI14
aI6
aI11
aI5
aI10
aI10
aI4
aI25
aI30
aI8
aI2
aI2
aI2
aI8
aI13
aI9
aI11
aI5
aI2
aI39
aI27
aI4
aI12
aI5
aI5
aI32
aI22
aI9
aI24
aI27
aI15
aI3
aI8
aI3
aI4
aI6
aI11
aI7
aI7
aI2
aI4
aI7
aI6
aI3
aI4
aI4
aI13
aI5
aI2
aI12
aI11
aI8
aI7
aI7
aI17
aI3
aI25
aI19
aI5
aI29
aI16
aI4
aI17
aI20
aI8
aI5
aI2
aI9
aI5
aI4
aI4
aI17
aI19
aa(lp4
I13
aI11
aI42
aI5
aI10
aI9
aI3
aI3
aI6
aI10
aI2
aI28
aI13
aI7
aI16
aI16
aI7
aI16
aI21
aI9
aI18
aI6
aI28
aI27
aI7
aI20
aI27
aI13
aI90
aI12
aI3
aI6
aI36
aI12
aI25
aI9
aI8
aI10
aI18
aI33
aI12
aI20
aI5
aI27
aI11
aI4
aI2
aI20
aI8
aI14
aI24
aI13
aI22
aI22
aI6
aI9
aI28
aI3
aI8
aI26
aI3
aI21
aI7
aI6
aI7
aI2
aI15
aI29
aI16
aa(lp5
I14
aI21
aI10
aI8
aI15
aI28
aI3
aI41
aI26
aI14
aI47
aI35
aI20
aI14
aI39
aI4
aI8
aI10
aI16
aI13
aI6
aI14
aI7
aI6
aI6
aI13
aI17
aI2
aI1
aI21
aI37
aI1
aI3
aI22
aI7
aI27
aI10
aI6
aI24
aI29
aI5
aI18
aI7
aI12
aI37
aI2
aI19
aI15
aI23
aI27
aI31
aI13
aI13
aI8
aI47
aI10
aI3
aI16
aI35
aI27
aI6
aI19
aa(lp6
I9
aI55
aI41
aI25
aI5
aI4
aI18
aI58
aI62
aI5
aI35
aI12
aI3
aI20
aI53
aI19
aI12
aI16
aI4
aI7
aI20
aI17
aI12
aI40
aI32
aI7
aI56
aI29
aI17
aI5
aI9
aI46
aI16
aI42
aI16
aI4
aI42
aI35
aI42
aI12
aI15
aI3
aI40
aa(lp7
I36
aI38
aI41
aI39
aI49
aI44
aI32
aI7
aI22
aI66
aI32
aI31
aI2
aI23
aI10
aI7
aI4
aI21
aI12
aI48
aI3
aI35
aI82
aI2
aI37
aI25
aI8
aI35
aI67
aI87
aI14
aI21
aI56
aa(lp8
I44
aI41
aI15
aI21
aI50
aI37
aI11
aI28
aI33
aI46
aI24
aI66
aI39
aI2
aI5
aI1
aI54
aI6
aI98
aI2
aI24
aI60
aI94
aI60
aI37
aI9
aI7
aI81
aI21
aI14
aa(lp9
I43
aI38
aI51
aI8
aI38
aI1
aI36
aI82
aI52
aI27
aI30
aI55
aI29
aI39
aI65
aI51
aI3
aI14
aI24
aI51
aI31
aI38
aI99
aI67
aI3
aI24
aI113
aa(lp10
I136
aI20
aI36
aI50
aI66
aI35
aI45
aI107
aI59
aI57
aI2
aI39
aI16
aI48
aI62
aI63
aI28
aI16
aI69
aI51
aI34
aI14
aI29
aa(lp11
I151
aI31
aI83
aI21
aI35
aI46
aI116
aI78
aI15
aI6
aI45
aI70
aI184
aI7
aI64
aI159
aa(lp12
I64
aI43
aI106
aI59
aI194
aI65
aI116
aI82
aI66
aI46
aI70
aI2
aI157
aa(lp13
I118
aI243
aI213
aI117
aI79
aI77
aI49
aI78
aI1
aI67
aI1
aI2
aI132
aa(lp14
I76
aI60
aI192
aI63
aI404
aI168
aI65
aI194
aI211
aa(lp15
I265
aI1
aI126
aI141
aI334
aI112
aI185
aI50
aI358
aa(lp16
I237
aI41
aI187
aI60
aI186
aI74
aI76
aI80
aI106
aI48
aI176
aa(lp17
I161
aI66
aI210
aI344
aI147
aI93
aI364
aa(lp18
I500
aI500
aa(lp19
I41
aI280
aI122
aI197
aI187
aI200
aI149
aI338
aa(lp20
I165
aI351
aI117
aI202
aI274
aI134
aa(lp21
I500
aI500
aI500
aa(lp22
I500
aI194
aI500
aa(lp23
I500
aI500
aI83
aI500
aa(lp24
I500
aI500
aI500
aa(lp25
I500
aI500
aI500
aa(lp26
I500
aI500
aI500
aa(lp27
I500
aI500
aI500
aa(lp28
I500
aI500
aI500
aa(lp29
I500
aI500
aI500
aa(lp30
I500
aI500
aI500
aa(lp31
I500
aI500
aI500
aa(lp32
I500
aI500
aI500
aa(lp33
I500
aI500
aI500
aa(lp34
I500
aI500
aI381
aI430
aa(lp35
I500
aI500
aI500
aa(lp36
I500
aI500
aI500
aa(lp37
I500
aI500
aI500
aa(lp38
I500
aI500
aI500
aa(lp39
I500
aI500
aI500
aa(lp40
I500
aI500
aa.